Certificate:
    Data:
        Version: 3 (0x2)
        Serial Number:
            69:1b:e8:77:34:e2:1d:cc:43:8e:12:c3:6e:8d:4e:cb
    Signature Algorithm: sha256WithRSAEncryption
        Issuer: C=GB, O=Example, CN=Root CA
        Validity
            Not Before: Feb 14 16:32:00 2019 GMT
            Not After : Feb 11 16:32:00 2029 GMT
        Subject: C=GB, O=Example, CN=Sub CA
        Subject Public Key Info:
            Public Key Algorithm: rsaEncryption
                Public-Key: (4096 bit)
                Modulus:
                    00:dc:63:64:9e:d5:ef:0b:2f:57:94:bc:c0:ec:e3:
                    d7:2a:b9:dd:4c:b4:be:7d:ed:44:ee:85:02:ac:9c:
                    d3:7d:92:6d:e8:29:ed:d8:3a:ba:5e:01:bb:60:9c:
                    4b:fe:c0:4d:a6:0b:23:35:68:13:1a:00:97:89:ca:
                    d6:30:04:93:34:09:c6:e3:40:24:70:a7:ec:ed:46:
                    f9:9f:a3:f3:40:45:27:44:28:8d:81:87:08:d8:b7:
                    3a:ed:7d:22:67:de:39:7a:ce:fb:1e:8d:dc:70:69:
                    08:28:ec:e4:a9:79:ef:36:1b:f2:e7:24:4d:7f:c0:
                    6b:16:5d:c0:03:9e:ce:96:19:87:54:87:b1:6e:52:
                    f7:00:a1:1d:a1:c6:df:ac:0c:7e:d2:dc:25:ae:ba:
                    bf:0c:a1:1d:5d:c9:22:2a:30:86:fb:9f:09:2b:e2:
                    d3:19:8f:1a:94:70:4d:1e:db:a2:bb:3a:d2:01:58:
                    54:13:7e:53:58:45:bd:0b:31:07:26:29:38:6d:50:
                    2c:12:ec:40:0a:7b:97:10:96:c3:85:bc:2f:c1:49:
                    c8:a7:9a:34:3e:77:6f:ab:77:c3:ab:a9:0a:96:e2:
                    a3:85:d8:df:82:e5:cd:44:02:8b:2d:3c:ed:68:7c:
                    d7:7d:04:b0:f6:34:54:53:30:d0:bd:f3:53:76:d1:
                    fa:9e:c7:b2:62:1e:49:05:2f:5a:85:a9:07:17:2d:
                    ce:7f:28:dd:c1:01:fc:b6:63:63:3d:f1:0a:0a:76:
                    28:2c:11:ac:66:92:23:ad:3f:f8:ef:67:78:59:de:
                    7e:0d:4b:5e:92:23:b3:4e:66:53:ad:eb:4d:ca:d4:
                    20:20:91:83:80:cb:96:b8:bf:a0:80:d4:37:ae:3c:
                    8e:2d:71:99:a7:87:91:71:45:2c:5f:e5:c5:6a:31:
                    9a:88:20:5c:86:0a:61:c5:0c:5a:e7:3c:61:25:a0:
                    83:fe:12:0d:85:01:f3:68:e6:db:d9:47:e3:3d:54:
                    c6:f6:61:c1:18:00:2d:6c:7e:6e:1c:23:24:bc:ac:
                    55:f0:13:17:64:39:8d:9b:e4:4c:b4:66:6f:e1:0e:
                    e8:5e:8d:af:26:f9:4c:29:d6:ae:5a:88:c8:74:d4:
                    89:9d:5b:94:15:9e:6d:23:b3:d0:cf:9c:54:a1:e7:
                    66:c5:1c:aa:2a:f4:a0:1b:c8:91:c7:ce:4e:04:e7:
                    35:01:c4:80:e5:f2:16:53:d8:8f:6d:1e:8e:99:7b:
                    d1:a8:33:c5:0a:74:91:8b:33:f6:38:ad:0e:ca:0d:
                    5b:35:b5:3b:98:0d:6b:89:13:f3:aa:ef:28:54:f7:
                    82:48:a0:57:26:ad:95:59:e0:c5:0f:dd:dd:8c:b7:
                    37:5d:1f
                Exponent: 65537 (0x10001)
        X509v3 extensions:
            Authority Information Access: 
                CA Issuers - URI:http://root-ca.example.com/root-ca.crt
                OCSP - URI:http://ocsp.root-ca.example.com:9080

            X509v3 Authority Key Identifier: 
                keyid:A4:6F:61:A3:1D:95:48:02:89:41:69:59:6D:D7:CF:CD:CF:86:68:FD

            X509v3 Basic Constraints: critical
                CA:TRUE, pathlen:0
            X509v3 CRL Distribution Points: 

                Full Name:
                  URI:http://root-ca.example.com/root-ca.crl

            X509v3 Extended Key Usage: 
                TLS Web Client Authentication, TLS Web Server Authentication
            X509v3 Key Usage: critical
                Certificate Sign, CRL Sign
            X509v3 Name Constraints: 
                Permitted:
                  DNS:example.com
                  DNS:example.org
                Excluded:
                  IP:0.0.0.0/0.0.0.0
                  IP:0:0:0:0:0:0:0:0/0:0:0:0:0:0:0:0

            X509v3 Subject Key Identifier: 
                E2:4E:4B:16:5B:AD:CC:29:62:3D:16:BB:42:77:A7:B9:AD:DB:18:52
    Signature Algorithm: sha256WithRSAEncryption
         56:92:72:e7:fe:ce:ce:85:39:e5:8c:7f:5f:0e:a2:78:d2:0c:
         9d:2d:b8:5a:84:be:74:eb:ca:b0:b8:5e:ca:8c:2e:37:93:83:
         a5:fe:93:46:3a:74:42:d0:cb:37:49:6c:80:26:15:fb:45:d1:
         b6:31:52:1c:a9:40:3a:c5:f8:16:ce:67:c8:f2:00:e8:0d:91:
         5a:6b:0e:f2:48:29:6d:8c:90:8c:a2:41:b3:64:6d:e1:62:54:
         8c:a4:18:b2:09:b4:b2:76:85:0a:d9:37:b3:79:92:67:50:98:
         c4:03:ba:6f:f3:3d:9d:1f:c1:30:28:a0:fe:14:be:c8:96:c4:
         d4:79:98:a0:0e:3b:d4:39:23:4d:64:36:c4:79:40:59:f3:69:
         3a:fa:e8:94:2f:2b:1a:ce:a0:88:5c:8b:34:c6:37:f8:91:7e:
         16:77:3f:04:99:89:a8:f2:8a:a8:7b:a8:f4:8d:e6:27:89:2f:
         a9:7f:d9:6f:fa:4c:87:f0:21:c9:11:ae:89:6a:5a:06:2f:21:
         40:cf:af:ef:a0:36:25:8d:77:54:61:02:8b:a0:d4:1c:24:39:
         f5:43:93:0b:4c:77:c5:30:eb:11:09:1c:b7:61:bb:05:c2:eb:
         97:ed:ae:3e:62:59:bd:d4:74:a1:fa:5c:e3:07:f0:ba:32:bb:
         a0:8b:0b:c9:cf:d0:f8:17:23:1b:84:42:92:39:73:c1:d9:86:
         9d:13:c7:14:b9:11:bd:b3:91:ff:14:6b:d2:c4:3d:7a:16:28:
         e8:5c:9f:0f:06:2a:aa:e9:59:f3:25:bb:fd:fb:d6:d5:b0:e3:
         35:2e:d9:71:d7:3b:eb:dc:c4:b2:51:dd:3c:51:85:91:ec:5b:
         42:df:32:58:42:a8:84:2a:28:7b:f9:29:c9:10:e9:8d:d8:ef:
         1d:f4:0e:0d:c2:ea:c1:88:11:95:e3:81:6e:d7:bf:93:c0:a4:
         c2:40:e3:02:a8:cc:ee:35:1c:75:a6:35:81:04:af:5c:79:e5:
         d4:ac:88:d4:6a:7f:5d:1a:42:b2:f3:0e:d5:46:9c:85:4f:8a:
         b1:c0:b5:40:75:d1:4c:13:a8:c9:93:01:0d:32:02:de:ed:26:
         da:38:f0:88:91:9c:d9:12:d8:0c:d6:0d:93:5f:bc:5b:d8:4a:
         df:d1:8e:2e:fc:dc:1b:a6:0e:13:5e:b1:57:81:62:7c:3e:a0:
         a5:ca:2a:7d:04:92:bc:eb:4a:6b:25:50:39:a5:b7:b1:6f:47:
         e8:9f:7b:3b:7d:26:59:fe:37:a1:d6:6a:86:dc:22:c2:17:97:
         e6:c2:99:95:82:62:42:be:6d:f1:72:77:5f:6c:53:b2:de:0d:
         91:d0:09:8d:24:44:36:78
-----BEGIN CERTIFICATE-----
MIIGgDCCBGigAwIBAgIQaRvodzTiHcxDjhLDbo1OyzANBgkqhkiG9w0BAQsFADAx
MQswCQYDVQQGEwJHQjEQMA4GA1UECgwHRXhhbXBsZTEQMA4GA1UEAwwHUm9vdCBD
QTAeFw0xOTAyMTQxNjMyMDBaFw0yOTAyMTExNjMyMDBaMDAxCzAJBgNVBAYTAkdC
MRAwDgYDVQQKDAdFeGFtcGxlMQ8wDQYDVQQDDAZTdWIgQ0EwggIiMA0GCSqGSIb3
DQEBAQUAA4ICDwAwggIKAoICAQDcY2Se1e8LL1eUvMDs49cqud1MtL597UTuhQKs
nNN9km3oKe3YOrpeAbtgnEv+wE2mCyM1aBMaAJeJytYwBJM0CcbjQCRwp+ztRvmf
o/NARSdEKI2BhwjYtzrtfSJn3jl6zvsejdxwaQgo7OSpee82G/LnJE1/wGsWXcAD
ns6WGYdUh7FuUvcAoR2hxt+sDH7S3CWuur8MoR1dySIqMIb7nwkr4tMZjxqUcE0e
26K7OtIBWFQTflNYRb0LMQcmKThtUCwS7EAKe5cQlsOFvC/BScinmjQ+d2+rd8Or
qQqW4qOF2N+C5c1EAostPO1ofNd9BLD2NFRTMNC981N20fqex7JiHkkFL1qFqQcX
Lc5/KN3BAfy2Y2M98QoKdigsEaxmkiOtP/jvZ3hZ3n4NS16SI7NOZlOt603K1CAg
kYOAy5a4v6CA1DeuPI4tcZmnh5FxRSxf5cVqMZqIIFyGCmHFDFrnPGEloIP+Eg2F
AfNo5tvZR+M9VMb2YcEYAC1sfm4cIyS8rFXwExdkOY2b5Ey0Zm/hDuheja8m+Uwp
1q5aiMh01ImdW5QVnm0js9DPnFSh52bFHKoq9KAbyJHHzk4E5zUBxIDl8hZT2I9t
Ho6Ze9GoM8UKdJGLM/Y4rQ7KDVs1tTuYDWuJE/Oq7yhU94JIoFcmrZVZ4MUP3d2M
tzddHwIDAQABo4IBkzCCAY8wdAYIKwYBBQUHAQEEaDBmMDIGCCsGAQUFBzAChiZo
dHRwOi8vcm9vdC1jYS5leGFtcGxlLmNvbS9yb290LWNhLmNydDAwBggrBgEFBQcw
AYYkaHR0cDovL29jc3Aucm9vdC1jYS5leGFtcGxlLmNvbTo5MDgwMB8GA1UdIwQY
MBaAFKRvYaMdlUgCiUFpWW3Xz83Phmj9MBIGA1UdEwEB/wQIMAYBAf8CAQAwNwYD
VR0fBDAwLjAsoCqgKIYmaHR0cDovL3Jvb3QtY2EuZXhhbXBsZS5jb20vcm9vdC1j
YS5jcmwwHQYDVR0lBBYwFAYIKwYBBQUHAwIGCCsGAQUFBwMBMA4GA1UdDwEB/wQE
AwIBBjBbBgNVHR4EVDBSoB4wDYILZXhhbXBsZS5jb20wDYILZXhhbXBsZS5vcmeh
MDAKhwgAAAAAAAAAADAihyAAAAAAAAAAAAAAAAAAAAAAAAAAAAAAAAAAAAAAAAAA
ADAdBgNVHQ4EFgQU4k5LFlutzCliPRa7Qnenua3bGFIwDQYJKoZIhvcNAQELBQAD
ggIBAFaScuf+zs6FOeWMf18OonjSDJ0tuFqEvnTryrC4XsqMLjeTg6X+k0Y6dELQ
yzdJbIAmFftF0bYxUhypQDrF+BbOZ8jyAOgNkVprDvJIKW2MkIyiQbNkbeFiVIyk
GLIJtLJ2hQrZN7N5kmdQmMQDum/zPZ0fwTAooP4UvsiWxNR5mKAOO9Q5I01kNsR5
QFnzaTr66JQvKxrOoIhcizTGN/iRfhZ3PwSZiajyiqh7qPSN5ieJL6l/2W/6TIfw
IckRrolqWgYvIUDPr++gNiWNd1RhAoug1BwkOfVDkwtMd8Uw6xEJHLdhuwXC65ft
rj5iWb3UdKH6XOMH8Loyu6CLC8nP0PgXIxuEQpI5c8HZhp0TxxS5Eb2zkf8Ua9LE
PXoWKOhcnw8GKqrpWfMlu/371tWw4zUu2XHXO+vcxLJR3TxRhZHsW0LfMlhCqIQq
KHv5KckQ6Y3Y7x30Dg3C6sGIEZXjgW7Xv5PApMJA4wKozO41HHWmNYEEr1x55dSs
iNRqf10aQrLzDtVGnIVPirHAtUB10UwTqMmTAQ0yAt7tJto48IiRnNkS2AzWDZNf
vFvYSt/Rji783BumDhNesVeBYnw+oKXKKn0EkrzrSmslUDmlt7FvR+ifezt9Jln+
N6HWaobcIsIXl+bCmZWCYkK+bfFyd19sU7LeDZHQCY0kRDZ4
-----END CERTIFICATE-----
