Certificate:
    Data:
        Version: 3 (0x2)
        Serial Number:
            69:1b:e8:77:34:e2:1d:cc:43:8e:12:c3:6e:8d:4e:cc
    Signature Algorithm: sha256WithRSAEncryption
        Issuer: C=GB, O=Example, CN=Sub CA
        Validity
            Not Before: Feb 14 17:36:04 2019 GMT
            Not After : Feb 14 17:36:04 2020 GMT
        Subject: C=GB, ST=London, O=Example, OU=Security, CN=Luigi/emailAddress=luigi@luigi.it
        Subject Public Key Info:
            Public Key Algorithm: rsaEncryption
                Public-Key: (2048 bit)
                Modulus:
                    00:dd:1a:f3:9d:f2:0f:59:89:c0:c0:4e:bd:62:92:
                    d2:54:b8:9d:ea:51:fa:04:2c:af:12:38:03:17:dc:
                    cb:1c:2e:f2:f3:c7:f1:20:19:33:2c:15:b7:f7:14:
                    6b:0b:38:20:be:ee:89:67:e3:08:f3:0d:df:a9:2a:
                    62:cf:29:0f:8f:e9:58:fe:00:f8:39:89:07:e0:a2:
                    15:2b:5b:2c:08:ed:5c:2a:2b:51:ec:31:d6:8f:35:
                    7c:11:3d:2e:7d:75:a3:08:dc:45:17:6b:82:c4:b2:
                    19:ca:a9:cf:0a:00:c4:59:70:64:96:48:c9:8c:91:
                    9e:27:4c:72:e0:b5:28:54:3e:bf:9e:bc:a8:31:65:
                    dc:27:6e:63:89:b8:a1:d5:56:eb:d2:fc:f2:a2:7a:
                    52:68:e2:a4:d2:18:02:d1:b3:85:02:ec:7a:59:78:
                    3f:e8:0b:f9:47:b3:34:fd:9c:f9:a0:58:dd:b6:dc:
                    66:47:c1:8c:3c:24:9d:e7:d5:d8:72:59:da:66:cf:
                    8b:02:8c:f5:24:02:8a:6c:99:5c:67:70:7c:a9:fa:
                    1c:95:53:91:95:8b:9d:0b:1c:33:fd:53:ff:24:0d:
                    cc:ca:90:82:be:b0:95:6a:1e:79:ad:d8:52:90:1a:
                    57:f1:cc:5e:36:e2:48:b2:27:7d:80:b5:68:b6:40:
                    fd:5b
                Exponent: 65537 (0x10001)
        X509v3 extensions:
            Authority Information Access: 
                CA Issuers - URI:http://sub-ca.example.com/sub-ca.crt
                OCSP - URI:http://ocsp.sub-ca.example.com:9080

            X509v3 Authority Key Identifier: 
                keyid:E2:4E:4B:16:5B:AD:CC:29:62:3D:16:BB:42:77:A7:B9:AD:DB:18:52

            X509v3 Basic Constraints: critical
                CA:FALSE
            X509v3 CRL Distribution Points: 

                Full Name:
                  URI:http://sub-ca.example.com/sub-ca.crl

            X509v3 Extended Key Usage: 
                TLS Web Client Authentication
            X509v3 Key Usage: critical
                Digital Signature
            X509v3 Subject Key Identifier: 
                AC:80:48:49:D7:8D:DB:F8:9D:9E:1F:E3:30:46:38:84:20:E2:11:AE
    Signature Algorithm: sha256WithRSAEncryption
         5f:9e:5e:51:7d:96:29:ae:33:3b:83:62:a2:55:32:48:74:3f:
         d6:cc:a5:3e:f2:f6:4a:67:9d:f4:c2:34:58:76:9d:2b:df:6a:
         2f:76:57:2e:62:cc:94:f0:02:3c:8b:d6:ee:ab:61:a3:33:01:
         9e:80:d1:a4:b3:e1:fe:a9:56:32:4b:72:e9:fa:5c:a0:51:0e:
         54:db:ec:0e:a6:1c:e2:f3:59:a7:16:a6:0e:4d:61:9f:fd:1f:
         4f:2a:51:fb:b0:a4:f4:39:a1:28:d1:23:bf:c6:f0:48:cd:b8:
         0e:dc:84:21:98:8a:96:fa:71:6b:e5:27:22:d3:25:73:9f:c0:
         fc:49:8d:68:7e:2a:f6:ef:f3:ed:c0:b9:e7:70:d5:3a:ed:92:
         53:05:8d:b8:48:6b:41:97:2c:e3:4e:bf:16:6e:41:ba:db:18:
         95:74:f9:40:d8:58:b5:9b:e5:5d:ab:4c:06:a4:ff:cf:0c:5b:
         4f:b6:df:86:a1:60:31:b7:ef:f2:f2:a4:f9:bb:aa:69:6a:96:
         c4:7b:c1:95:6f:c6:3e:16:2c:98:f6:fb:ca:cf:83:5e:6b:c9:
         64:35:c5:26:6d:78:2f:ba:ca:be:b4:e2:48:c4:31:4d:c2:be:
         6b:92:87:e5:3b:38:e8:4e:ce:de:25:c6:e6:ba:64:a9:55:6f:
         85:83:ca:67:8f:19:b6:10:a0:b2:0b:c3:cc:f8:f0:95:20:74:
         a2:9c:81:9c:47:b1:2c:b5:fd:9a:83:f0:fc:68:a1:3e:c7:e8:
         b5:74:f8:09:28:c5:ae:f3:b3:9d:3e:f4:a5:77:c5:2f:51:b0:
         39:5a:54:d4:e6:f4:e4:90:80:64:d2:c9:3d:23:30:ad:ca:a7:
         c5:cf:70:a4:c0:65:d9:9b:1b:66:78:d8:b5:ef:02:d8:f0:cc:
         d9:96:5f:45:96:8e:e9:96:b9:95:48:80:67:d4:82:cb:0a:33:
         0f:62:f6:32:92:ed:27:96:e0:71:3b:7d:f6:6b:44:cd:d5:6f:
         e0:d2:9f:27:a7:99:ba:e6:32:37:72:51:7a:fb:86:95:13:69:
         a6:84:35:a3:d3:00:36:1a:8a:0d:62:23:27:7e:ae:9c:68:30:
         57:68:ec:d5:5f:d4:2f:37:5f:1a:ad:08:c0:fa:57:74:02:08:
         76:6f:92:50:28:7a:ac:13:7c:69:65:36:98:39:c3:7b:92:6d:
         00:3c:21:24:86:5f:27:9a:9c:3b:4d:7d:e5:75:ec:43:a0:e4:
         2d:b1:c7:4e:4f:65:03:9a:ed:5e:19:d6:a3:d4:a6:8a:30:9c:
         88:7e:0a:87:3c:30:87:17:96:82:ed:fe:a8:3e:c8:8e:23:28:
         55:14:14:eb:d4:f7:b8:f4
-----BEGIN CERTIFICATE-----
MIIFTzCCAzegAwIBAgIQaRvodzTiHcxDjhLDbo1OzDANBgkqhkiG9w0BAQsFADAw
MQswCQYDVQQGEwJHQjEQMA4GA1UECgwHRXhhbXBsZTEPMA0GA1UEAwwGU3ViIENB
MB4XDTE5MDIxNDE3MzYwNFoXDTIwMDIxNDE3MzYwNFowcjELMAkGA1UEBhMCR0Ix
DzANBgNVBAgMBkxvbmRvbjEQMA4GA1UECgwHRXhhbXBsZTERMA8GA1UECwwIU2Vj
dXJpdHkxDjAMBgNVBAMMBUx1aWdpMR0wGwYJKoZIhvcNAQkBFg5sdWlnaUBsdWln
aS5pdDCCASIwDQYJKoZIhvcNAQEBBQADggEPADCCAQoCggEBAN0a853yD1mJwMBO
vWKS0lS4nepR+gQsrxI4Axfcyxwu8vPH8SAZMywVt/cUaws4IL7uiWfjCPMN36kq
Ys8pD4/pWP4A+DmJB+CiFStbLAjtXCorUewx1o81fBE9Ln11owjcRRdrgsSyGcqp
zwoAxFlwZJZIyYyRnidMcuC1KFQ+v568qDFl3CduY4m4odVW69L88qJ6UmjipNIY
AtGzhQLsell4P+gL+UezNP2c+aBY3bbcZkfBjDwknefV2HJZ2mbPiwKM9SQCimyZ
XGdwfKn6HJVTkZWLnQscM/1T/yQNzMqQgr6wlWoeea3YUpAaV/HMXjbiSLInfYC1
aLZA/VsCAwEAAaOCASEwggEdMHEGCCsGAQUFBwEBBGUwYzAwBggrBgEFBQcwAoYk
aHR0cDovL3N1Yi1jYS5leGFtcGxlLmNvbS9zdWItY2EuY3J0MC8GCCsGAQUFBzAB
hiNodHRwOi8vb2NzcC5zdWItY2EuZXhhbXBsZS5jb206OTA4MDAfBgNVHSMEGDAW
gBTiTksWW63MKWI9FrtCd6e5rdsYUjAMBgNVHRMBAf8EAjAAMDUGA1UdHwQuMCww
KqAooCaGJGh0dHA6Ly9zdWItY2EuZXhhbXBsZS5jb20vc3ViLWNhLmNybDATBgNV
HSUEDDAKBggrBgEFBQcDAjAOBgNVHQ8BAf8EBAMCB4AwHQYDVR0OBBYEFKyASEnX
jdv4nZ4f4zBGOIQg4hGuMA0GCSqGSIb3DQEBCwUAA4ICAQBfnl5RfZYprjM7g2Ki
VTJIdD/WzKU+8vZKZ530wjRYdp0r32ovdlcuYsyU8AI8i9buq2GjMwGegNGks+H+
qVYyS3Lp+lygUQ5U2+wOphzi81mnFqYOTWGf/R9PKlH7sKT0OaEo0SO/xvBIzbgO
3IQhmIqW+nFr5Sci0yVzn8D8SY1ofir27/PtwLnncNU67ZJTBY24SGtBlyzjTr8W
bkG62xiVdPlA2Fi1m+Vdq0wGpP/PDFtPtt+GoWAxt+/y8qT5u6ppapbEe8GVb8Y+
FiyY9vvKz4Nea8lkNcUmbXgvusq+tOJIxDFNwr5rkoflOzjoTs7eJcbmumSpVW+F
g8pnjxm2EKCyC8PM+PCVIHSinIGcR7Estf2ag/D8aKE+x+i1dPgJKMWu87OdPvSl
d8UvUbA5WlTU5vTkkIBk0sk9IzCtyqfFz3CkwGXZmxtmeNi17wLY8MzZll9Flo7p
lrmVSIBn1ILLCjMPYvYyku0nluBxO332a0TN1W/g0p8np5m65jI3clF6+4aVE2mm
hDWj0wA2GooNYiMnfq6caDBXaOzVX9QvN18arQjA+ld0Agh2b5JQKHqsE3xpZTaY
OcN7km0APCEkhl8nmpw7TX3ldexDoOQtscdOT2UDmu1eGdaj1KaKMJyIfgqHPDCH
F5aC7f6oPsiOIyhVFBTr1Pe49A==
-----END CERTIFICATE-----
