Certificate:
    Data:
        Version: 3 (0x2)
        Serial Number:
            69:1b:e8:77:34:e2:1d:cc:43:8e:12:c3:6e:8d:4e:ce
    Signature Algorithm: sha256WithRSAEncryption
        Issuer: C=GB, O=Example, CN=Sub CA
        Validity
            Not Before: Feb 19 14:25:14 2019 GMT
            Not After : Feb 19 14:25:14 2020 GMT
        Subject: C=GB, ST=London, O=Example, OU=Security, CN=Luigi/emailAddress=luigi@luigi.it
        Subject Public Key Info:
            Public Key Algorithm: rsaEncryption
                Public-Key: (2048 bit)
                Modulus:
                    00:dd:1a:f3:9d:f2:0f:59:89:c0:c0:4e:bd:62:92:
                    d2:54:b8:9d:ea:51:fa:04:2c:af:12:38:03:17:dc:
                    cb:1c:2e:f2:f3:c7:f1:20:19:33:2c:15:b7:f7:14:
                    6b:0b:38:20:be:ee:89:67:e3:08:f3:0d:df:a9:2a:
                    62:cf:29:0f:8f:e9:58:fe:00:f8:39:89:07:e0:a2:
                    15:2b:5b:2c:08:ed:5c:2a:2b:51:ec:31:d6:8f:35:
                    7c:11:3d:2e:7d:75:a3:08:dc:45:17:6b:82:c4:b2:
                    19:ca:a9:cf:0a:00:c4:59:70:64:96:48:c9:8c:91:
                    9e:27:4c:72:e0:b5:28:54:3e:bf:9e:bc:a8:31:65:
                    dc:27:6e:63:89:b8:a1:d5:56:eb:d2:fc:f2:a2:7a:
                    52:68:e2:a4:d2:18:02:d1:b3:85:02:ec:7a:59:78:
                    3f:e8:0b:f9:47:b3:34:fd:9c:f9:a0:58:dd:b6:dc:
                    66:47:c1:8c:3c:24:9d:e7:d5:d8:72:59:da:66:cf:
                    8b:02:8c:f5:24:02:8a:6c:99:5c:67:70:7c:a9:fa:
                    1c:95:53:91:95:8b:9d:0b:1c:33:fd:53:ff:24:0d:
                    cc:ca:90:82:be:b0:95:6a:1e:79:ad:d8:52:90:1a:
                    57:f1:cc:5e:36:e2:48:b2:27:7d:80:b5:68:b6:40:
                    fd:5b
                Exponent: 65537 (0x10001)
        X509v3 extensions:
            Authority Information Access: 
                CA Issuers - URI:http://sub-ca.example.com/sub-ca.crt
                OCSP - URI:http://ocsp.sub-ca.example.com:9080

            X509v3 Authority Key Identifier: 
                keyid:E2:4E:4B:16:5B:AD:CC:29:62:3D:16:BB:42:77:A7:B9:AD:DB:18:52

            X509v3 Basic Constraints: critical
                CA:FALSE
            X509v3 CRL Distribution Points: 

                Full Name:
                  URI:http://sub-ca.example.com/sub-ca.crl

            X509v3 Extended Key Usage: 
                TLS Web Client Authentication
            X509v3 Key Usage: critical
                Digital Signature
            X509v3 Subject Key Identifier: 
                AC:80:48:49:D7:8D:DB:F8:9D:9E:1F:E3:30:46:38:84:20:E2:11:AE
            X509v3 Subject Alternative Name: 
                URI:https://sharesemantics.com/people/luigi
    Signature Algorithm: sha256WithRSAEncryption
         d4:d3:78:15:ed:a4:d5:e9:36:41:cf:01:5e:66:4f:29:0f:72:
         a0:ec:ba:ae:c2:95:e5:1a:3e:49:9f:11:9d:9a:91:ff:6b:95:
         bf:3b:0e:30:7d:c5:8d:12:bd:e3:f1:47:45:31:0f:f3:7c:1c:
         8e:84:88:90:70:37:da:22:8b:c3:8c:27:90:fc:54:cd:17:83:
         18:2a:aa:9b:13:f2:dd:44:6e:7c:31:21:95:50:d6:5f:ee:72:
         69:0e:eb:0c:0e:5b:35:ce:07:db:27:ea:ba:46:90:be:75:ce:
         d2:41:03:7a:9d:5f:e0:b5:17:f7:0a:5b:9e:f3:65:70:69:e8:
         e3:bb:f3:5f:9f:a3:8c:f9:3b:5e:bc:c5:29:8c:0f:3d:6a:77:
         3a:20:96:59:e1:aa:ef:7a:73:18:c7:4d:1c:7d:53:b3:fa:b0:
         51:b5:d4:aa:18:e7:ba:4f:21:63:19:6d:b3:34:ce:41:71:41:
         31:b2:7c:c0:0a:d6:a4:31:97:8b:21:aa:0b:17:79:70:78:08:
         de:ed:db:d0:0d:fb:ed:ab:bc:df:6d:e1:19:fe:ad:ee:c5:0d:
         8b:57:91:cc:11:29:4f:68:fd:70:c3:08:d9:f8:14:07:88:76:
         55:c5:b1:c5:f9:48:96:23:42:13:61:3b:74:fb:34:30:b9:de:
         60:fc:63:5f:27:7c:7c:24:fc:7a:7b:8d:2a:db:90:75:ed:eb:
         a2:4d:99:41:c8:7c:7e:a3:59:76:00:6a:cd:87:21:6d:35:ff:
         ae:a0:8a:60:58:9f:51:7a:b0:7a:24:d2:29:c8:86:10:bd:ba:
         ea:9e:0d:32:bb:1d:28:6c:50:6c:f4:34:89:2d:95:8a:e5:87:
         d0:81:fb:65:1c:79:8a:74:de:7f:cc:4d:6e:7b:1c:ad:89:cd:
         63:23:71:a5:81:ce:95:62:14:88:dd:d4:6f:a4:90:17:a6:9b:
         51:9c:00:eb:1d:3c:78:0e:bb:62:c7:4e:bf:6e:5e:1d:9c:6f:
         59:39:5e:d0:73:6b:8d:5d:63:ca:54:3a:dc:81:59:87:9d:f5:
         f7:4a:0c:4a:a0:6e:16:7b:1b:d8:cc:05:77:e4:40:81:78:2f:
         de:75:1a:92:59:c7:6b:b0:c4:7e:07:36:fe:64:27:de:e9:a0:
         91:91:9e:b3:ba:1f:c4:3c:47:34:74:f7:fd:30:5e:f9:a3:f6:
         f9:0d:f0:9d:53:ae:a2:f5:73:cb:fb:ec:13:7f:4b:4f:fe:ad:
         0b:7a:02:c4:4f:2b:fd:dd:71:c5:82:bf:7a:69:f6:71:c6:39:
         dd:a5:c9:f2:f1:12:38:73:e1:61:9f:34:da:b0:88:41:36:9f:
         38:6d:a1:11:b8:3f:2e:af
-----BEGIN CERTIFICATE-----
MIIFgzCCA2ugAwIBAgIQaRvodzTiHcxDjhLDbo1OzjANBgkqhkiG9w0BAQsFADAw
MQswCQYDVQQGEwJHQjEQMA4GA1UECgwHRXhhbXBsZTEPMA0GA1UEAwwGU3ViIENB
MB4XDTE5MDIxOTE0MjUxNFoXDTIwMDIxOTE0MjUxNFowcjELMAkGA1UEBhMCR0Ix
DzANBgNVBAgMBkxvbmRvbjEQMA4GA1UECgwHRXhhbXBsZTERMA8GA1UECwwIU2Vj
dXJpdHkxDjAMBgNVBAMMBUx1aWdpMR0wGwYJKoZIhvcNAQkBFg5sdWlnaUBsdWln
aS5pdDCCASIwDQYJKoZIhvcNAQEBBQADggEPADCCAQoCggEBAN0a853yD1mJwMBO
vWKS0lS4nepR+gQsrxI4Axfcyxwu8vPH8SAZMywVt/cUaws4IL7uiWfjCPMN36kq
Ys8pD4/pWP4A+DmJB+CiFStbLAjtXCorUewx1o81fBE9Ln11owjcRRdrgsSyGcqp
zwoAxFlwZJZIyYyRnidMcuC1KFQ+v568qDFl3CduY4m4odVW69L88qJ6UmjipNIY
AtGzhQLsell4P+gL+UezNP2c+aBY3bbcZkfBjDwknefV2HJZ2mbPiwKM9SQCimyZ
XGdwfKn6HJVTkZWLnQscM/1T/yQNzMqQgr6wlWoeea3YUpAaV/HMXjbiSLInfYC1
aLZA/VsCAwEAAaOCAVUwggFRMHEGCCsGAQUFBwEBBGUwYzAwBggrBgEFBQcwAoYk
aHR0cDovL3N1Yi1jYS5leGFtcGxlLmNvbS9zdWItY2EuY3J0MC8GCCsGAQUFBzAB
hiNodHRwOi8vb2NzcC5zdWItY2EuZXhhbXBsZS5jb206OTA4MDAfBgNVHSMEGDAW
gBTiTksWW63MKWI9FrtCd6e5rdsYUjAMBgNVHRMBAf8EAjAAMDUGA1UdHwQuMCww
KqAooCaGJGh0dHA6Ly9zdWItY2EuZXhhbXBsZS5jb20vc3ViLWNhLmNybDATBgNV
HSUEDDAKBggrBgEFBQcDAjAOBgNVHQ8BAf8EBAMCB4AwHQYDVR0OBBYEFKyASEnX
jdv4nZ4f4zBGOIQg4hGuMDIGA1UdEQQrMCmGJ2h0dHBzOi8vc2hhcmVzZW1hbnRp
Y3MuY29tL3Blb3BsZS9sdWlnaTANBgkqhkiG9w0BAQsFAAOCAgEA1NN4Fe2k1ek2
Qc8BXmZPKQ9yoOy6rsKV5Ro+SZ8RnZqR/2uVvzsOMH3FjRK94/FHRTEP83wcjoSI
kHA32iKLw4wnkPxUzReDGCqqmxPy3URufDEhlVDWX+5yaQ7rDA5bNc4H2yfqukaQ
vnXO0kEDep1f4LUX9wpbnvNlcGno47vzX5+jjPk7XrzFKYwPPWp3OiCWWeGq73pz
GMdNHH1Ts/qwUbXUqhjnuk8hYxltszTOQXFBMbJ8wArWpDGXiyGqCxd5cHgI3u3b
0A377au8323hGf6t7sUNi1eRzBEpT2j9cMMI2fgUB4h2VcWxxflIliNCE2E7dPs0
MLneYPxjXyd8fCT8enuNKtuQde3rok2ZQch8fqNZdgBqzYchbTX/rqCKYFifUXqw
eiTSKciGEL266p4NMrsdKGxQbPQ0iS2ViuWH0IH7ZRx5inTef8xNbnscrYnNYyNx
pYHOlWIUiN3Ub6SQF6abUZwA6x08eA67YsdOv25eHZxvWTle0HNrjV1jylQ63IFZ
h53190oMSqBuFnsb2MwFd+RAgXgv3nUaklnHa7DEfgc2/mQn3umgkZGes7ofxDxH
NHT3/TBe+aP2+Q3wnVOuovVzy/vsE39LT/6tC3oCxE8r/d1xxYK/emn2ccY53aXJ
8vESOHPhYZ802rCIQTafOG2hEbg/Lq8=
-----END CERTIFICATE-----
