Certificate:
    Data:
        Version: 3 (0x2)
        Serial Number:
            69:1b:e8:77:34:e2:1d:cc:43:8e:12:c3:6e:8d:4e:cf
    Signature Algorithm: sha256WithRSAEncryption
        Issuer: C=GB, O=Example, CN=Sub CA
        Validity
            Not Before: Feb 19 14:28:43 2019 GMT
            Not After : Feb 19 14:28:43 2020 GMT
        Subject: C=GB, ST=London, O=Example, OU=Security, CN=Luigi/emailAddress=luigi@luigi.it
        Subject Public Key Info:
            Public Key Algorithm: rsaEncryption
                Public-Key: (2048 bit)
                Modulus:
                    00:dd:1a:f3:9d:f2:0f:59:89:c0:c0:4e:bd:62:92:
                    d2:54:b8:9d:ea:51:fa:04:2c:af:12:38:03:17:dc:
                    cb:1c:2e:f2:f3:c7:f1:20:19:33:2c:15:b7:f7:14:
                    6b:0b:38:20:be:ee:89:67:e3:08:f3:0d:df:a9:2a:
                    62:cf:29:0f:8f:e9:58:fe:00:f8:39:89:07:e0:a2:
                    15:2b:5b:2c:08:ed:5c:2a:2b:51:ec:31:d6:8f:35:
                    7c:11:3d:2e:7d:75:a3:08:dc:45:17:6b:82:c4:b2:
                    19:ca:a9:cf:0a:00:c4:59:70:64:96:48:c9:8c:91:
                    9e:27:4c:72:e0:b5:28:54:3e:bf:9e:bc:a8:31:65:
                    dc:27:6e:63:89:b8:a1:d5:56:eb:d2:fc:f2:a2:7a:
                    52:68:e2:a4:d2:18:02:d1:b3:85:02:ec:7a:59:78:
                    3f:e8:0b:f9:47:b3:34:fd:9c:f9:a0:58:dd:b6:dc:
                    66:47:c1:8c:3c:24:9d:e7:d5:d8:72:59:da:66:cf:
                    8b:02:8c:f5:24:02:8a:6c:99:5c:67:70:7c:a9:fa:
                    1c:95:53:91:95:8b:9d:0b:1c:33:fd:53:ff:24:0d:
                    cc:ca:90:82:be:b0:95:6a:1e:79:ad:d8:52:90:1a:
                    57:f1:cc:5e:36:e2:48:b2:27:7d:80:b5:68:b6:40:
                    fd:5b
                Exponent: 65537 (0x10001)
        X509v3 extensions:
            Authority Information Access: 
                CA Issuers - URI:http://sub-ca.example.com/sub-ca.crt
                OCSP - URI:http://ocsp.sub-ca.example.com:9080

            X509v3 Authority Key Identifier: 
                keyid:E2:4E:4B:16:5B:AD:CC:29:62:3D:16:BB:42:77:A7:B9:AD:DB:18:52

            X509v3 Basic Constraints: critical
                CA:FALSE
            X509v3 CRL Distribution Points: 

                Full Name:
                  URI:http://sub-ca.example.com/sub-ca.crl

            X509v3 Extended Key Usage: 
                TLS Web Client Authentication
            X509v3 Key Usage: critical
                Digital Signature
            X509v3 Subject Key Identifier: 
                AC:80:48:49:D7:8D:DB:F8:9D:9E:1F:E3:30:46:38:84:20:E2:11:AE
            X509v3 Subject Alternative Name: 
                URI:https://sharesemantics.com/people/luigi#me
    Signature Algorithm: sha256WithRSAEncryption
         15:db:1c:f2:e7:12:92:b5:98:37:27:e9:e9:e3:ba:73:be:4a:
         0e:d6:27:7d:e9:0c:17:67:4d:2a:a1:de:d4:36:f3:f0:b4:76:
         f2:b4:92:71:03:c7:b4:c9:4b:42:9e:d5:c5:25:44:ad:84:13:
         d5:2e:32:67:29:1b:b6:4e:c6:91:43:46:45:0e:cc:4f:93:c3:
         e7:12:87:1a:b8:7e:2e:31:dd:34:86:9b:3a:6f:eb:89:ef:72:
         a1:1c:53:9c:f3:87:f0:7f:84:7b:08:a0:01:03:7b:0e:21:dc:
         a1:db:5f:c0:b8:d6:11:f9:67:53:0f:a5:af:2a:6e:30:19:4d:
         8b:99:b5:59:b9:d2:e7:4d:1a:29:10:89:01:dc:82:27:bc:27:
         f0:0c:ae:69:bd:76:ac:a7:a0:76:cb:74:fe:8e:16:84:a3:3d:
         e3:66:14:91:76:11:13:23:a6:88:67:96:1c:17:6e:3c:e0:7d:
         6a:71:e1:dd:14:de:01:87:65:dc:cb:a5:55:1a:7d:25:22:07:
         52:06:b6:6b:df:ac:c8:4f:18:5f:f1:da:30:7e:1e:23:f7:6b:
         7f:ac:e7:43:53:c1:b1:86:8e:ce:1b:a8:14:1e:a2:43:60:a8:
         98:71:83:62:7e:1c:81:9e:ed:0e:56:10:2e:37:de:d3:51:09:
         d9:d2:51:29:cd:bc:8a:cb:0b:ad:f0:4a:28:67:a4:90:81:15:
         6c:cb:2d:10:5f:09:a8:c2:4c:5c:ca:ef:4f:0c:9d:46:73:06:
         31:b4:87:54:b6:16:d4:6d:dd:42:dc:db:5b:9a:6a:46:69:48:
         a8:40:c4:f3:25:6b:0d:18:2d:85:13:d5:65:e7:ae:a6:a8:f6:
         e3:a2:fc:03:b9:eb:ec:75:82:6b:07:b2:ac:4a:ea:2e:27:0f:
         60:0b:fb:9b:67:22:62:64:3d:a5:96:70:3c:7d:3d:2c:70:0d:
         84:3b:80:55:40:0c:dc:da:49:86:58:b7:5e:d2:30:a9:ae:13:
         47:6d:01:e0:32:27:93:95:76:56:ee:93:23:e8:bd:24:d0:f2:
         cc:90:cb:d4:1e:9d:3f:1d:38:c7:87:2b:2a:b0:09:9c:22:9d:
         19:e8:89:1a:fc:c4:1a:ba:2a:e4:60:ec:1d:70:0a:9f:72:d6:
         d6:90:0a:62:6e:a4:19:1b:32:42:81:7f:35:cc:9c:a4:aa:ca:
         70:16:45:ac:71:e6:d5:94:77:a7:c5:65:61:b2:58:47:b7:4d:
         f2:44:21:3b:d9:d4:fc:44:90:e7:6d:50:c2:92:74:e7:a4:cd:
         44:ee:51:cf:00:07:3c:5d:c2:8a:00:c1:b2:75:88:25:8b:32:
         50:76:21:99:80:8c:ac:16
-----BEGIN CERTIFICATE-----
MIIFhjCCA26gAwIBAgIQaRvodzTiHcxDjhLDbo1OzzANBgkqhkiG9w0BAQsFADAw
MQswCQYDVQQGEwJHQjEQMA4GA1UECgwHRXhhbXBsZTEPMA0GA1UEAwwGU3ViIENB
MB4XDTE5MDIxOTE0Mjg0M1oXDTIwMDIxOTE0Mjg0M1owcjELMAkGA1UEBhMCR0Ix
DzANBgNVBAgMBkxvbmRvbjEQMA4GA1UECgwHRXhhbXBsZTERMA8GA1UECwwIU2Vj
dXJpdHkxDjAMBgNVBAMMBUx1aWdpMR0wGwYJKoZIhvcNAQkBFg5sdWlnaUBsdWln
aS5pdDCCASIwDQYJKoZIhvcNAQEBBQADggEPADCCAQoCggEBAN0a853yD1mJwMBO
vWKS0lS4nepR+gQsrxI4Axfcyxwu8vPH8SAZMywVt/cUaws4IL7uiWfjCPMN36kq
Ys8pD4/pWP4A+DmJB+CiFStbLAjtXCorUewx1o81fBE9Ln11owjcRRdrgsSyGcqp
zwoAxFlwZJZIyYyRnidMcuC1KFQ+v568qDFl3CduY4m4odVW69L88qJ6UmjipNIY
AtGzhQLsell4P+gL+UezNP2c+aBY3bbcZkfBjDwknefV2HJZ2mbPiwKM9SQCimyZ
XGdwfKn6HJVTkZWLnQscM/1T/yQNzMqQgr6wlWoeea3YUpAaV/HMXjbiSLInfYC1
aLZA/VsCAwEAAaOCAVgwggFUMHEGCCsGAQUFBwEBBGUwYzAwBggrBgEFBQcwAoYk
aHR0cDovL3N1Yi1jYS5leGFtcGxlLmNvbS9zdWItY2EuY3J0MC8GCCsGAQUFBzAB
hiNodHRwOi8vb2NzcC5zdWItY2EuZXhhbXBsZS5jb206OTA4MDAfBgNVHSMEGDAW
gBTiTksWW63MKWI9FrtCd6e5rdsYUjAMBgNVHRMBAf8EAjAAMDUGA1UdHwQuMCww
KqAooCaGJGh0dHA6Ly9zdWItY2EuZXhhbXBsZS5jb20vc3ViLWNhLmNybDATBgNV
HSUEDDAKBggrBgEFBQcDAjAOBgNVHQ8BAf8EBAMCB4AwHQYDVR0OBBYEFKyASEnX
jdv4nZ4f4zBGOIQg4hGuMDUGA1UdEQQuMCyGKmh0dHBzOi8vc2hhcmVzZW1hbnRp
Y3MuY29tL3Blb3BsZS9sdWlnaSNtZTANBgkqhkiG9w0BAQsFAAOCAgEAFdsc8ucS
krWYNyfp6eO6c75KDtYnfekMF2dNKqHe1Dbz8LR28rSScQPHtMlLQp7VxSVErYQT
1S4yZykbtk7GkUNGRQ7MT5PD5xKHGrh+LjHdNIabOm/rie9yoRxTnPOH8H+Eewig
AQN7DiHcodtfwLjWEflnUw+lrypuMBlNi5m1WbnS500aKRCJAdyCJ7wn8Ayuab12
rKegdst0/o4WhKM942YUkXYREyOmiGeWHBduPOB9anHh3RTeAYdl3MulVRp9JSIH
Uga2a9+syE8YX/HaMH4eI/drf6znQ1PBsYaOzhuoFB6iQ2ComHGDYn4cgZ7tDlYQ
Ljfe01EJ2dJRKc28issLrfBKKGekkIEVbMstEF8JqMJMXMrvTwydRnMGMbSHVLYW
1G3dQtzbW5pqRmlIqEDE8yVrDRgthRPVZeeupqj246L8A7nr7HWCaweyrErqLicP
YAv7m2ciYmQ9pZZwPH09LHANhDuAVUAM3NpJhli3XtIwqa4TR20B4DInk5V2Vu6T
I+i9JNDyzJDL1B6dPx04x4crKrAJnCKdGeiJGvzEGroq5GDsHXAKn3LW1pAKYm6k
GRsyQoF/NcycpKrKcBZFrHHm1ZR3p8VlYbJYR7dN8kQhO9nU/ESQ521QwpJ056TN
RO5RzwAHPF3CigDBsnWIJYsyUHYhmYCMrBY=
-----END CERTIFICATE-----
