Certificate:
    Data:
        Version: 3 (0x2)
        Serial Number:
            69:1b:e8:77:34:e2:1d:cc:43:8e:12:c3:6e:8d:4e:d0
    Signature Algorithm: sha256WithRSAEncryption
        Issuer: C=GB, O=Example, CN=Sub CA
        Validity
            Not Before: Feb 19 14:32:53 2019 GMT
            Not After : Feb 19 14:32:53 2020 GMT
        Subject: C=GB, ST=London, O=Example, OU=Security, CN=Luigi/emailAddress=luigi@luigi.it
        Subject Public Key Info:
            Public Key Algorithm: rsaEncryption
                Public-Key: (2048 bit)
                Modulus:
                    00:dd:1a:f3:9d:f2:0f:59:89:c0:c0:4e:bd:62:92:
                    d2:54:b8:9d:ea:51:fa:04:2c:af:12:38:03:17:dc:
                    cb:1c:2e:f2:f3:c7:f1:20:19:33:2c:15:b7:f7:14:
                    6b:0b:38:20:be:ee:89:67:e3:08:f3:0d:df:a9:2a:
                    62:cf:29:0f:8f:e9:58:fe:00:f8:39:89:07:e0:a2:
                    15:2b:5b:2c:08:ed:5c:2a:2b:51:ec:31:d6:8f:35:
                    7c:11:3d:2e:7d:75:a3:08:dc:45:17:6b:82:c4:b2:
                    19:ca:a9:cf:0a:00:c4:59:70:64:96:48:c9:8c:91:
                    9e:27:4c:72:e0:b5:28:54:3e:bf:9e:bc:a8:31:65:
                    dc:27:6e:63:89:b8:a1:d5:56:eb:d2:fc:f2:a2:7a:
                    52:68:e2:a4:d2:18:02:d1:b3:85:02:ec:7a:59:78:
                    3f:e8:0b:f9:47:b3:34:fd:9c:f9:a0:58:dd:b6:dc:
                    66:47:c1:8c:3c:24:9d:e7:d5:d8:72:59:da:66:cf:
                    8b:02:8c:f5:24:02:8a:6c:99:5c:67:70:7c:a9:fa:
                    1c:95:53:91:95:8b:9d:0b:1c:33:fd:53:ff:24:0d:
                    cc:ca:90:82:be:b0:95:6a:1e:79:ad:d8:52:90:1a:
                    57:f1:cc:5e:36:e2:48:b2:27:7d:80:b5:68:b6:40:
                    fd:5b
                Exponent: 65537 (0x10001)
        X509v3 extensions:
            Authority Information Access: 
                CA Issuers - URI:http://sub-ca.example.com/sub-ca.crt
                OCSP - URI:http://ocsp.sub-ca.example.com:9080

            X509v3 Authority Key Identifier: 
                keyid:E2:4E:4B:16:5B:AD:CC:29:62:3D:16:BB:42:77:A7:B9:AD:DB:18:52

            X509v3 Basic Constraints: critical
                CA:FALSE
            X509v3 CRL Distribution Points: 

                Full Name:
                  URI:http://sub-ca.example.com/sub-ca.crl

            X509v3 Extended Key Usage: 
                TLS Web Client Authentication
            X509v3 Key Usage: critical
                Digital Signature
            X509v3 Subject Key Identifier: 
                AC:80:48:49:D7:8D:DB:F8:9D:9E:1F:E3:30:46:38:84:20:E2:11:AE
            X509v3 Subject Alternative Name: critical
                URI:https://sharesemantics.com/people/luigi#me
    Signature Algorithm: sha256WithRSAEncryption
         d8:57:ba:04:bd:a4:69:35:68:73:2d:31:14:5f:92:be:bb:47:
         21:c5:a1:82:8b:f5:b6:5e:42:a7:01:88:5a:94:72:a7:66:7f:
         82:4a:e2:b0:98:6a:4b:53:a0:69:cb:58:d0:68:64:eb:df:84:
         93:20:ba:f2:cd:64:03:57:15:ed:bc:e8:79:70:ae:71:5a:24:
         a2:b0:04:d3:c1:39:b0:6f:85:45:5f:f3:94:51:db:47:53:cf:
         a4:f4:49:aa:5b:50:33:73:7b:8f:87:40:b7:e8:1c:a1:7f:5a:
         e8:44:8a:47:81:87:4a:c6:df:18:1c:cd:21:dc:e5:6f:22:93:
         17:bb:92:5b:a0:40:57:17:eb:61:b4:db:af:b2:bb:bd:43:64:
         76:4c:15:18:80:d1:cb:56:9d:7f:de:96:1c:47:b9:70:e9:ab:
         be:d7:ce:42:65:36:65:e1:63:c9:0a:ee:76:28:fd:0f:4b:ae:
         e8:bb:eb:1d:4b:ed:96:34:66:2b:da:22:5c:ad:74:70:af:33:
         63:56:0e:ec:9e:49:40:39:1f:fa:9c:89:f4:9e:0b:c3:a6:ea:
         fa:c1:70:d3:bc:2a:bd:a3:ca:85:24:43:8a:18:c3:39:97:39:
         83:a6:b3:fc:77:8b:31:d3:75:e3:89:f0:62:6e:fc:fc:3e:a5:
         ea:f1:e1:97:5f:1e:08:fd:8d:9b:24:3a:cb:73:87:24:8b:2e:
         4b:18:b4:7d:8d:2f:73:0f:d5:97:82:e9:46:70:ec:0e:6a:b8:
         88:ee:7e:e3:7a:92:b1:ac:8a:eb:41:53:d3:c1:c0:d9:84:6b:
         3e:3f:70:22:e8:92:0a:14:2f:af:4e:c9:5f:40:9d:21:bf:87:
         9c:bf:1e:7d:63:08:31:60:70:56:9a:62:30:95:bf:79:95:f4:
         5c:da:08:1e:2d:9e:08:af:bc:64:a6:6f:5a:fe:20:71:85:7d:
         aa:c8:b0:68:b3:be:b5:e1:a3:b3:c5:4d:08:2c:1f:4f:d9:81:
         c3:3c:05:a7:8d:5d:a9:5d:4b:9c:8d:b1:d1:aa:0a:5a:f0:4b:
         1b:cc:ca:0f:fd:36:1e:d7:40:4d:3d:7c:73:25:81:49:1e:50:
         d1:19:85:ca:7a:1e:6b:86:27:19:13:e6:72:74:a5:67:2b:b0:
         ba:41:ac:11:7e:39:e4:f9:38:5a:40:6d:60:22:63:3d:ed:fb:
         5c:14:12:9a:72:04:5f:a5:16:7b:7a:31:c9:0b:bd:57:9e:91:
         b6:4e:ec:15:12:7c:02:6f:6f:e5:3f:52:e8:b4:ec:19:c6:90:
         00:7e:db:82:90:5e:af:df:91:1e:f9:c5:fc:d1:de:77:1b:7a:
         62:8c:d4:c0:cc:3b:e0:40
-----BEGIN CERTIFICATE-----
MIIFiTCCA3GgAwIBAgIQaRvodzTiHcxDjhLDbo1O0DANBgkqhkiG9w0BAQsFADAw
MQswCQYDVQQGEwJHQjEQMA4GA1UECgwHRXhhbXBsZTEPMA0GA1UEAwwGU3ViIENB
MB4XDTE5MDIxOTE0MzI1M1oXDTIwMDIxOTE0MzI1M1owcjELMAkGA1UEBhMCR0Ix
DzANBgNVBAgMBkxvbmRvbjEQMA4GA1UECgwHRXhhbXBsZTERMA8GA1UECwwIU2Vj
dXJpdHkxDjAMBgNVBAMMBUx1aWdpMR0wGwYJKoZIhvcNAQkBFg5sdWlnaUBsdWln
aS5pdDCCASIwDQYJKoZIhvcNAQEBBQADggEPADCCAQoCggEBAN0a853yD1mJwMBO
vWKS0lS4nepR+gQsrxI4Axfcyxwu8vPH8SAZMywVt/cUaws4IL7uiWfjCPMN36kq
Ys8pD4/pWP4A+DmJB+CiFStbLAjtXCorUewx1o81fBE9Ln11owjcRRdrgsSyGcqp
zwoAxFlwZJZIyYyRnidMcuC1KFQ+v568qDFl3CduY4m4odVW69L88qJ6UmjipNIY
AtGzhQLsell4P+gL+UezNP2c+aBY3bbcZkfBjDwknefV2HJZ2mbPiwKM9SQCimyZ
XGdwfKn6HJVTkZWLnQscM/1T/yQNzMqQgr6wlWoeea3YUpAaV/HMXjbiSLInfYC1
aLZA/VsCAwEAAaOCAVswggFXMHEGCCsGAQUFBwEBBGUwYzAwBggrBgEFBQcwAoYk
aHR0cDovL3N1Yi1jYS5leGFtcGxlLmNvbS9zdWItY2EuY3J0MC8GCCsGAQUFBzAB
hiNodHRwOi8vb2NzcC5zdWItY2EuZXhhbXBsZS5jb206OTA4MDAfBgNVHSMEGDAW
gBTiTksWW63MKWI9FrtCd6e5rdsYUjAMBgNVHRMBAf8EAjAAMDUGA1UdHwQuMCww
KqAooCaGJGh0dHA6Ly9zdWItY2EuZXhhbXBsZS5jb20vc3ViLWNhLmNybDATBgNV
HSUEDDAKBggrBgEFBQcDAjAOBgNVHQ8BAf8EBAMCB4AwHQYDVR0OBBYEFKyASEnX
jdv4nZ4f4zBGOIQg4hGuMDgGA1UdEQEB/wQuMCyGKmh0dHBzOi8vc2hhcmVzZW1h
bnRpY3MuY29tL3Blb3BsZS9sdWlnaSNtZTANBgkqhkiG9w0BAQsFAAOCAgEA2Fe6
BL2kaTVocy0xFF+SvrtHIcWhgov1tl5CpwGIWpRyp2Z/gkrisJhqS1OgactY0Ghk
69+EkyC68s1kA1cV7bzoeXCucVokorAE08E5sG+FRV/zlFHbR1PPpPRJqltQM3N7
j4dAt+gcoX9a6ESKR4GHSsbfGBzNIdzlbyKTF7uSW6BAVxfrYbTbr7K7vUNkdkwV
GIDRy1adf96WHEe5cOmrvtfOQmU2ZeFjyQrudij9D0uu6LvrHUvtljRmK9oiXK10
cK8zY1YO7J5JQDkf+pyJ9J4Lw6bq+sFw07wqvaPKhSRDihjDOZc5g6az/HeLMdN1
44nwYm78/D6l6vHhl18eCP2NmyQ6y3OHJIsuSxi0fY0vcw/Vl4LpRnDsDmq4iO5+
43qSsayK60FT08HA2YRrPj9wIuiSChQvr07JX0CdIb+HnL8efWMIMWBwVppiMJW/
eZX0XNoIHi2eCK+8ZKZvWv4gcYV9qsiwaLO+teGjs8VNCCwfT9mBwzwFp41dqV1L
nI2x0aoKWvBLG8zKD/02HtdATT18cyWBSR5Q0RmFynoea4YnGRPmcnSlZyuwukGs
EX455Pk4WkBtYCJjPe37XBQSmnIEX6UWe3oxyQu9V56Rtk7sFRJ8Am9v5T9S6LTs
GcaQAH7bgpBer9+RHvnF/NHedxt6YozUwMw74EA=
-----END CERTIFICATE-----
