Certificate:
    Data:
        Version: 3 (0x2)
        Serial Number:
            69:1b:e8:77:34:e2:1d:cc:43:8e:12:c3:6e:8d:4e:c9
    Signature Algorithm: sha256WithRSAEncryption
        Issuer: C=GB, O=Example, CN=Root CA
        Validity
            Not Before: Jan 27 21:32:42 2019 GMT
            Not After : Feb 26 21:32:42 2019 GMT
        Subject: C=GB, O=Example, CN=OCSP Root Responder
        Subject Public Key Info:
            Public Key Algorithm: rsaEncryption
                Public-Key: (2048 bit)
                Modulus:
                    00:d2:a0:fa:31:b3:43:dd:10:dc:22:7f:6a:0f:07:
                    28:9d:1a:70:2d:12:f4:e1:68:8e:1b:d8:6d:84:ad:
                    a9:fd:a4:a0:26:d5:c6:52:e0:07:0f:6d:3a:c7:f4:
                    6c:4d:a2:70:ea:24:92:fc:b1:9a:32:a5:87:e2:04:
                    68:a0:a4:a1:c8:a5:e5:8a:97:4c:24:f4:43:79:00:
                    0e:05:43:f0:05:1d:e6:52:1f:bf:7f:c3:08:6f:2a:
                    06:0d:f8:93:13:9d:e3:a4:37:f5:0c:b0:7d:02:ca:
                    e8:00:be:ca:db:ef:88:1c:3d:78:bb:ed:3e:03:f7:
                    5a:a6:49:ab:f5:f8:4a:7b:0f:32:08:e0:18:37:2c:
                    99:d5:70:e1:d7:63:f4:62:5d:fc:4e:bd:8b:9b:5f:
                    46:7a:bc:c3:01:5e:e7:e6:78:cf:2f:6f:d4:eb:67:
                    a6:26:d7:d4:45:f8:bc:8a:ad:f5:7d:88:ed:4a:88:
                    55:29:dc:69:f7:e7:5f:de:6e:02:15:50:03:ea:32:
                    cf:7e:5a:42:3b:a0:ef:2e:57:dd:14:28:fe:b6:f7:
                    dc:3b:80:6e:8e:fe:08:2c:fa:1d:d6:aa:13:68:21:
                    ab:42:04:49:b6:a2:72:83:00:2c:3b:01:6c:8d:d1:
                    66:54:b0:e3:8e:2e:96:37:a9:eb:eb:7d:a4:48:b8:
                    d8:a3
                Exponent: 65537 (0x10001)
        X509v3 extensions:
            X509v3 Authority Key Identifier: 
                keyid:A4:6F:61:A3:1D:95:48:02:89:41:69:59:6D:D7:CF:CD:CF:86:68:FD

            X509v3 Basic Constraints: critical
                CA:FALSE
            X509v3 Extended Key Usage: 
                OCSP Signing
            X509v3 Key Usage: critical
                Digital Signature
            X509v3 Subject Key Identifier: 
                5C:F1:C4:01:58:E7:3D:A8:E9:00:57:47:B6:6D:63:2B:3F:A3:2A:07
    Signature Algorithm: sha256WithRSAEncryption
         36:10:0a:20:c3:92:d3:44:8c:ac:34:81:e9:66:d4:b5:81:68:
         7d:96:1b:24:c5:7a:28:7e:54:9a:ff:8e:81:44:cd:8c:04:83:
         31:e3:59:ff:ab:a8:da:7d:d2:b5:da:a0:1f:6f:46:ca:49:4d:
         a9:86:05:a2:2d:05:15:70:e3:3e:9d:14:4c:30:dd:7e:4b:2b:
         00:5c:d2:ca:e9:6d:13:24:78:8b:94:91:db:d4:84:3e:22:fe:
         bb:99:81:a7:9d:f0:86:d7:e3:ca:df:ea:e9:3b:34:96:6e:64:
         76:47:51:25:c2:39:57:ef:37:c9:09:64:1f:3a:50:0c:0e:c0:
         fe:ba:e5:3a:25:f0:80:1e:5f:b1:e5:0c:79:84:79:d0:93:c9:
         c7:f2:3c:22:90:74:4e:d9:a8:a5:77:ec:64:3c:9c:c8:a5:c2:
         4d:48:65:29:d5:ea:4a:9a:6a:52:af:9d:aa:03:ff:06:2b:3b:
         52:92:e4:3a:b2:f4:84:2b:64:06:7d:5d:ee:e2:3d:77:66:4d:
         71:67:b5:84:2f:76:aa:a8:aa:83:15:dc:01:54:59:d7:b2:1e:
         0f:f4:69:e4:a7:2d:ad:9f:37:b8:7e:5b:fe:04:f6:61:ee:45:
         b5:f3:49:1b:6e:70:6f:e8:ca:2e:69:eb:85:1c:bb:27:29:d7:
         1c:1e:ac:e8:b7:ac:8e:92:3b:fc:60:44:d9:39:dd:0d:42:07:
         10:94:04:6e:a1:f8:5c:ca:4e:32:07:e8:02:cd:03:37:b0:1f:
         c0:a2:39:a6:d3:d0:b4:60:45:d3:be:6a:44:1b:1a:12:e8:4e:
         9b:ec:c0:4b:19:2e:b8:93:8e:ee:9f:b2:37:ac:b1:2e:cd:b2:
         ba:be:0e:ce:ca:f8:05:4a:94:70:c6:79:85:68:16:2f:86:ad:
         dd:4c:4d:9c:64:63:6d:39:6e:48:8f:74:eb:a7:1e:6a:3d:30:
         3c:35:bd:ac:cf:a8:cf:32:94:b0:4b:8b:a1:bd:3f:de:5b:8f:
         f0:c9:42:e0:cb:94:fa:61:7c:90:ab:17:e7:ba:92:93:6e:5d:
         0b:1f:f5:06:3b:e6:4c:9a:bf:7a:35:a6:b0:d6:43:79:b8:37:
         9c:98:f7:c3:2b:31:54:84:c0:f2:a2:08:5a:cb:f4:d3:22:04:
         ed:a5:42:61:b6:4c:fa:2b:6e:e6:13:df:1d:9d:4f:a6:e7:f6:
         82:31:66:63:9e:12:09:2e:41:2e:8e:f8:90:a4:f7:f7:3d:09:
         55:5e:1c:1d:e6:7c:ff:dd:0b:36:cf:86:d0:bf:d8:39:7e:6f:
         86:0a:06:a0:7a:c1:26:35:d2:79:4a:f8:bd:c1:48:6c:02:82:
         b5:e8:53:d2:68:d5:42:12
-----BEGIN CERTIFICATE-----
MIIEbTCCAlWgAwIBAgIQaRvodzTiHcxDjhLDbo1OyTANBgkqhkiG9w0BAQsFADAx
MQswCQYDVQQGEwJHQjEQMA4GA1UECgwHRXhhbXBsZTEQMA4GA1UEAwwHUm9vdCBD
QTAeFw0xOTAxMjcyMTMyNDJaFw0xOTAyMjYyMTMyNDJaMD0xCzAJBgNVBAYTAkdC
MRAwDgYDVQQKDAdFeGFtcGxlMRwwGgYDVQQDDBNPQ1NQIFJvb3QgUmVzcG9uZGVy
MIIBIjANBgkqhkiG9w0BAQEFAAOCAQ8AMIIBCgKCAQEA0qD6MbND3RDcIn9qDwco
nRpwLRL04WiOG9hthK2p/aSgJtXGUuAHD206x/RsTaJw6iSS/LGaMqWH4gRooKSh
yKXlipdMJPRDeQAOBUPwBR3mUh+/f8MIbyoGDfiTE53jpDf1DLB9AsroAL7K2++I
HD14u+0+A/dapkmr9fhKew8yCOAYNyyZ1XDh12P0Yl38Tr2Lm19GerzDAV7n5njP
L2/U62emJtfURfi8iq31fYjtSohVKdxp9+df3m4CFVAD6jLPflpCO6DvLlfdFCj+
tvfcO4Bujv4ILPod1qoTaCGrQgRJtqJygwAsOwFsjdFmVLDjji6WN6nr632kSLjY
owIDAQABo3UwczAfBgNVHSMEGDAWgBSkb2GjHZVIAolBaVlt18/Nz4Zo/TAMBgNV
HRMBAf8EAjAAMBMGA1UdJQQMMAoGCCsGAQUFBwMJMA4GA1UdDwEB/wQEAwIHgDAd
BgNVHQ4EFgQUXPHEAVjnPajpAFdHtm1jKz+jKgcwDQYJKoZIhvcNAQELBQADggIB
ADYQCiDDktNEjKw0gelm1LWBaH2WGyTFeih+VJr/joFEzYwEgzHjWf+rqNp90rXa
oB9vRspJTamGBaItBRVw4z6dFEww3X5LKwBc0srpbRMkeIuUkdvUhD4i/ruZgaed
8IbX48rf6uk7NJZuZHZHUSXCOVfvN8kJZB86UAwOwP665Tol8IAeX7HlDHmEedCT
ycfyPCKQdE7ZqKV37GQ8nMilwk1IZSnV6kqaalKvnaoD/wYrO1KS5Dqy9IQrZAZ9
Xe7iPXdmTXFntYQvdqqoqoMV3AFUWdeyHg/0aeSnLa2fN7h+W/4E9mHuRbXzSRtu
cG/oyi5p64Ucuycp1xwerOi3rI6SO/xgRNk53Q1CBxCUBG6h+FzKTjIH6ALNAzew
H8CiOabT0LRgRdO+akQbGhLoTpvswEsZLriTju6fsjessS7Nsrq+Ds7K+AVKlHDG
eYVoFi+Grd1MTZxkY205bkiPdOunHmo9MDw1vazPqM8ylLBLi6G9P95bj/DJQuDL
lPphfJCrF+e6kpNuXQsf9QY75kyav3o1prDWQ3m4N5yY98MrMVSEwPKiCFrL9NMi
BO2lQmG2TPorbuYT3x2dT6bn9oIxZmOeEgkuQS6O+JCk9/c9CVVeHB3mfP/dCzbP
htC/2Dl+b4YKBqB6wSY10nlK+L3BSGwCgrXoU9Jo1UIS
-----END CERTIFICATE-----
